Certificate:
    Data:
        Version: 3 (0x2)
        Serial Number: 0 (0x0)
    Signature Algorithm: sha256WithRSAEncryption
        Issuer: C=TH, ST=Bangkok, L=Phayathai, O=Advanced Info Service PLC., OU=TSSD/ISS, CN=10.137.16.128 
        Validity
            Not Before: Sep 29 09:38:29 2017 GMT
            Not After : Sep 29 09:38:29 2018 GMT
        Subject: C=TH, ST=Bangkok, L=Phayathai, O=Advanced Info Service PLC., OU=TSSD/ISS, CN=10.137.16.128 
        Subject Public Key Info:
            Public Key Algorithm: rsaEncryption
                Public-Key: (2048 bit)
                Modulus:
                    00:c4:2e:fd:5d:91:cc:65:44:ee:18:3c:a1:b6:42:
                    80:a8:9d:b8:d0:f2:52:af:b8:77:30:b8:9f:4a:88:
                    ac:fa:de:0b:7d:03:3b:1e:7e:49:48:65:7b:da:18:
                    fa:4a:07:af:e1:9d:82:e0:bc:e5:41:ba:5b:db:40:
                    a1:f5:b6:64:bd:e8:b7:ef:0c:16:df:15:6a:1f:5f:
                    34:f1:a7:c1:8f:97:14:4f:c5:2e:80:ae:e8:85:33:
                    7c:9f:23:36:32:49:05:49:13:c7:df:6d:66:21:ea:
                    45:09:21:a2:ae:41:36:45:c0:c5:2b:82:f9:0c:d1:
                    81:66:29:5a:b5:72:c1:f5:d7:77:64:36:20:3c:39:
                    d4:9e:8e:54:d1:55:12:f5:5d:2f:f8:1e:2d:b7:9a:
                    79:01:a4:f2:2b:90:c9:39:71:af:2f:12:ce:7d:5c:
                    24:f9:7e:2b:52:70:c4:0d:33:1f:47:07:f4:20:9e:
                    1f:26:97:26:e7:f3:23:52:0e:30:1b:11:2d:1a:e7:
                    c2:d6:ae:c0:d2:d7:95:9e:ad:83:df:a8:78:ce:38:
                    2a:df:9a:f9:7c:99:ad:65:fe:39:da:c0:21:71:ac:
                    01:98:61:2b:cb:8c:7f:0a:a5:3f:a3:ba:6b:2d:2b:
                    de:c7:e1:99:88:a8:bb:4c:f6:92:95:27:a2:fd:c1:
                    25:f7
                Exponent: 65537 (0x10001)
        X509v3 extensions:
            X509v3 Basic Constraints: 
                CA:FALSE
            Netscape Comment: 
                OpenSSL Generated Certificate
            X509v3 Subject Key Identifier: 
                56:0F:0A:3B:0E:4C:CE:B2:4A:BE:71:78:80:12:52:0F:13:3A:44:23
            X509v3 Authority Key Identifier: 
                keyid:AB:EB:26:5B:6F:B5:75:CC:B5:F2:D8:C7:9C:A5:A7:2E:82:9F:29:8E

    Signature Algorithm: sha256WithRSAEncryption
         41:30:41:11:84:b4:be:d8:95:8c:48:73:40:c9:46:d7:96:d5:
         49:98:ed:1a:35:0c:c3:7c:81:12:1f:b3:c1:36:a8:74:0e:81:
         ef:b1:f2:88:ce:cc:7e:0e:8d:59:4b:ab:34:67:e6:b0:97:99:
         a6:7d:22:02:91:c8:7e:54:b8:83:df:00:72:10:fe:2a:fa:1f:
         2c:27:5e:52:30:0a:28:87:60:cf:3f:c2:1a:ea:cd:4d:68:8c:
         39:00:bd:7c:13:67:e3:99:a2:a1:d1:74:1b:6a:09:c7:f0:b5:
         44:b8:1c:5b:f2:c9:cb:87:6f:c6:b4:dd:7b:d1:8f:7f:ec:c8:
         f0:35:2f:ee:fe:1a:8e:1c:f2:e9:10:cd:96:ae:51:ce:b6:ef:
         cc:55:33:e3:80:0a:f4:ae:64:cb:43:7f:21:4f:78:ad:5d:a5:
         24:6b:2e:8f:4d:fd:ea:67:23:5e:43:84:55:b5:4a:b9:dc:a3:
         95:54:90:ca:84:60:85:24:cd:94:d0:2a:55:86:d8:9e:8f:8d:
         0c:49:ff:7e:52:5c:e4:57:c3:4b:82:c5:6b:44:1d:d0:85:2f:
         2a:9c:31:90:c5:9c:ab:36:37:c2:81:b5:eb:63:89:2f:6f:a2:
         12:05:3b:75:48:a3:0c:b3:e7:a6:de:9f:b7:fa:8d:69:3c:77:
         0b:18:54:c8
-----BEGIN CERTIFICATE-----
MIIEADCCAuigAwIBAgIBADANBgkqhkiG9w0BAQsFADCBhDELMAkGA1UEBhMCVEgx
EDAOBgNVBAgMB0Jhbmdrb2sxEjAQBgNVBAcMCVBoYXlhdGhhaTEjMCEGA1UECgwa
QWR2YW5jZWQgSW5mbyBTZXJ2aWNlIFBMQy4xETAPBgNVBAsMCFRTU0QvSVNTMRcw
FQYDVQQDDA4xMC4xMzcuMTYuMTI4IDAeFw0xNzA5MjkwOTM4MjlaFw0xODA5Mjkw
OTM4MjlaMIGEMQswCQYDVQQGEwJUSDEQMA4GA1UECAwHQmFuZ2tvazESMBAGA1UE
BwwJUGhheWF0aGFpMSMwIQYDVQQKDBpBZHZhbmNlZCBJbmZvIFNlcnZpY2UgUExD
LjERMA8GA1UECwwIVFNTRC9JU1MxFzAVBgNVBAMMDjEwLjEzNy4xNi4xMjggMIIB
IjANBgkqhkiG9w0BAQEFAAOCAQ8AMIIBCgKCAQEAxC79XZHMZUTuGDyhtkKAqJ24
0PJSr7h3MLifSois+t4LfQM7Hn5JSGV72hj6Sgev4Z2C4LzlQbpb20Ch9bZkvei3
7wwW3xVqH1808afBj5cUT8UugK7ohTN8nyM2MkkFSRPH321mIepFCSGirkE2RcDF
K4L5DNGBZilatXLB9dd3ZDYgPDnUno5U0VUS9V0v+B4tt5p5AaTyK5DJOXGvLxLO
fVwk+X4rUnDEDTMfRwf0IJ4fJpcm5/MjUg4wGxEtGufC1q7A0teVnq2D36h4zjgq
35r5fJmtZf452sAhcawBmGEry4x/CqU/o7prLSvex+GZiKi7TPaSlSei/cEl9wID
AQABo3sweTAJBgNVHRMEAjAAMCwGCWCGSAGG+EIBDQQfFh1PcGVuU1NMIEdlbmVy
YXRlZCBDZXJ0aWZpY2F0ZTAdBgNVHQ4EFgQUVg8KOw5MzrJKvnF4gBJSDxM6RCMw
HwYDVR0jBBgwFoAUq+smW2+1dcy18tjHnKWnLoKfKY4wDQYJKoZIhvcNAQELBQAD
ggEBAEEwQRGEtL7YlYxIc0DJRteW1UmY7Ro1DMN8gRIfs8E2qHQOge+x8ojOzH4O
jVlLqzRn5rCXmaZ9IgKRyH5UuIPfAHIQ/ir6HywnXlIwCiiHYM8/whrqzU1ojDkA
vXwTZ+OZoqHRdBtqCcfwtUS4HFvyycuHb8a03XvRj3/syPA1L+7+Go4c8ukQzZau
Uc6278xVM+OACvSuZMtDfyFPeK1dpSRrLo9N/epnI15DhFW1Srnco5VUkMqEYIUk
zZTQKlWG2J6PjQxJ/35SXORXw0uCxWtEHdCFLyqcMZDFnKs2N8KBtetjiS9vohIF
O3VIowyz56ben7f6jWk8dwsYVMg=
-----END CERTIFICATE-----
